; Function Attrs: nounwind sspstrong uwtable
define internal noundef i64 @count_iter_i(i64 %0, i64 noundef %1, i32 noundef %2, ptr noundef %3, i64 %4) #0 {
  %6 = tail call i64 @rb_yield_values2(i32 noundef %2, ptr noundef %3) #14
  %7 = and i64 %6, -5
  %.not = icmp eq i64 %7, 0
  br i1 %.not, label %10, label %8

8:                                                ; preds = %5
  %9 = inttoptr i64 %1 to ptr
  tail call fastcc void @imemo_count_up(ptr noundef %9)
  br label %10

10:                                               ; preds = %8, %5
  ret i64 4
}